; Function Attrs: mustprogress nounwind uwtable
define void @_ZN6icu_7713DecimalFormatD2Ev(ptr noundef nonnull align 8 dereferenceable(72) initializes((0, 8)) %0) unnamed_addr #0 align 2 {
  store ptr getelementptr inbounds nuw inrange(-16, 600) (i8, ptr @_ZTVN6icu_7713DecimalFormatE, i64 16), ptr %0, align 8, !tbaa !18
  %2 = getelementptr inbounds nuw i8, ptr %0, i64 64
  %3 = load ptr, ptr %2, align 8, !tbaa !25
  %4 = icmp eq ptr %3, null
  br i1 %4, label %44, label %5

5:                                                ; preds = %1
  %6 = getelementptr inbounds nuw i8, ptr %3, i64 1272
  %7 = atomicrmw xchg ptr %6, i64 0 seq_cst, align 8
  %8 = icmp eq i64 %7, 0
  br i1 %8, label %13, label %9

9:                                                ; preds = %5
  %.0.i.i = inttoptr i64 %7 to ptr
  %10 = load ptr, ptr %.0.i.i, align 8, !tbaa !18
  %11 = getelementptr inbounds nuw i8, ptr %10, i64 8
  %12 = load ptr, ptr %11, align 8
  tail call void %12(ptr noundef nonnull align 8 dereferenceable(5216) %.0.i.i) #19
  br label %13

13:                                               ; preds = %9, %5
  %14 = load ptr, ptr %2, align 8, !tbaa !25
  %15 = getelementptr inbounds nuw i8, ptr %14, i64 1280
  %16 = atomicrmw xchg ptr %15, i64 0 seq_cst, align 8
  %17 = icmp eq i64 %16, 0
  br i1 %17, label %22, label %18

18:                                               ; preds = %13
  %.0.i.i4 = inttoptr i64 %16 to ptr
  %19 = load ptr, ptr %.0.i.i4, align 8, !tbaa !18
  %20 = getelementptr inbounds nuw i8, ptr %19, i64 8
  %21 = load ptr, ptr %20, align 8
  tail call void %21(ptr noundef nonnull align 8 dereferenceable(5216) %.0.i.i4) #19
  br label %22

22:                                               ; preds = %18, %13
  %23 = load ptr, ptr %2, align 8, !tbaa !25
  %24 = icmp eq ptr %23, null
  br i1 %24, label %44, label %25

25:                                               ; preds = %22
  %26 = getelementptr inbounds nuw i8, ptr %23, i64 3768
  tail call void @_ZN6icu_776number4impl23DecimalFormatPropertiesD2Ev(ptr noundef nonnull align 8 dereferenceable(757) %26) #19
  %27 = getelementptr inbounds nuw i8, ptr %23, i64 3760
  %28 = load ptr, ptr %27, align 8, !tbaa !35
  %29 = icmp eq ptr %28, null
  br i1 %29, label %_ZN6icu_776number4impl22DecimalFormatWarehouseD2Ev.exit.i, label %30

30:                                               ; preds = %25
  %31 = load ptr, ptr %28, align 8, !tbaa !18
  %32 = getelementptr inbounds nuw i8, ptr %31, i64 8
  %33 = load ptr, ptr %32, align 8
  tail call void %33(ptr noundef nonnull align 8 dereferenceable(28) %28) #19
  br label %_ZN6icu_776number4impl22DecimalFormatWarehouseD2Ev.exit.i

_ZN6icu_776number4impl22DecimalFormatWarehouseD2Ev.exit.i: ; preds = %30, %25
  %34 = getelementptr inbounds nuw i8, ptr %23, i64 1296
  tail call void @_ZN6icu_776number4impl24AutoAffixPatternProviderD2Ev(ptr noundef nonnull align 8 dereferenceable(2464) %34) #19
  %35 = getelementptr inbounds nuw i8, ptr %23, i64 776
  tail call void @_ZN6icu_776number24LocalizedNumberFormatterD1Ev(ptr noundef nonnull align 8 dereferenceable(496) %35) #19
  %36 = getelementptr inbounds nuw i8, ptr %23, i64 768
  %37 = load ptr, ptr %36, align 8, !tbaa !32
  %38 = icmp eq ptr %37, null
  br i1 %38, label %_ZN6icu_776number4impl19DecimalFormatFieldsD2Ev.exit, label %39

39:                                               ; preds = %_ZN6icu_776number4impl22DecimalFormatWarehouseD2Ev.exit.i
  %40 = load ptr, ptr %37, align 8, !tbaa !18
  %41 = getelementptr inbounds nuw i8, ptr %40, i64 8
  %42 = load ptr, ptr %41, align 8
  tail call void %42(ptr noundef nonnull align 8 dereferenceable(2579) %37) #19
  br label %_ZN6icu_776number4impl19DecimalFormatFieldsD2Ev.exit

_ZN6icu_776number4impl19DecimalFormatFieldsD2Ev.exit: ; preds = %_ZN6icu_776number4impl22DecimalFormatWarehouseD2Ev.exit.i, %39
  %43 = getelementptr inbounds nuw i8, ptr %23, i64 8
  tail call void @_ZN6icu_776number4impl23DecimalFormatPropertiesD2Ev(ptr noundef nonnull align 8 dereferenceable(757) %43) #19
  tail call void @_ZN6icu_777UMemorydlEPv(ptr noundef nonnull %23) #19
  br label %44

44:                                               ; preds = %22, %_ZN6icu_776number4impl19DecimalFormatFieldsD2Ev.exit, %1
  tail call void @_ZN6icu_7712NumberFormatD2Ev(ptr noundef nonnull align 8 dereferenceable(60) %0) #19
  ret void
}